; ModuleID = '43/43.c'
source_filename = "43/43.c"
target datalayout = "e-m:e-p270:32:32-p271:32:32-p272:64:64-i64:64-f80:128-n8:16:32:64-S128"
target triple = "x86_64-pc-linux-gnu"

@.str = private unnamed_addr constant [3 x i8] c"%d\00", align 1
@.str.1 = private unnamed_addr constant [7 x i8] c"%d %d\0A\00", align 1

; Function Attrs: noinline nounwind uwtable
define dso_local i32 @main() #0 {
  %1 = alloca i32, align 4
  %2 = alloca i32, align 4
  %3 = alloca i32, align 4
  %4 = alloca i32, align 4
  %5 = alloca i32, align 4
  %6 = alloca i32, align 4
  store i32 0, i32* %1, align 4
  %7 = call i32 (i8*, ...) @__isoc99_scanf(i8* getelementptr inbounds ([3 x i8], [3 x i8]* @.str, i64 0, i64 0), i32* %4)
  store i32 3, i32* %2, align 4
  br label %8

8:                                                ; preds = %63, %0
  %9 = load i32, i32* %2, align 4
  %10 = load i32, i32* %4, align 4
  %11 = sdiv i32 %10, 2
  %12 = icmp sle i32 %9, %11
  br i1 %12, label %13, label %66

13:                                               ; preds = %8
  store i32 0, i32* %5, align 4
  store i32 0, i32* %6, align 4
  store i32 2, i32* %3, align 4
  br label %14

14:                                               ; preds = %26, %13
  %15 = load i32, i32* %3, align 4
  %16 = load i32, i32* %2, align 4
  %17 = sub nsw i32 %16, 1
  %18 = icmp sle i32 %15, %17
  br i1 %18, label %19, label %29

19:                                               ; preds = %14
  %20 = load i32, i32* %2, align 4
  %21 = load i32, i32* %3, align 4
  %22 = srem i32 %20, %21
  %23 = icmp eq i32 %22, 0
  br i1 %23, label %24, label %25

24:                                               ; preds = %19
  store i32 1, i32* %5, align 4
  br label %29

25:                                               ; preds = %19
  br label %26

26:                                               ; preds = %25
  %27 = load i32, i32* %3, align 4
  %28 = add nsw i32 %27, 1
  store i32 %28, i32* %3, align 4
  br label %14

29:                                               ; preds = %24, %14
  %30 = load i32, i32* %5, align 4
  %31 = icmp eq i32 %30, 0
  br i1 %31, label %32, label %62

32:                                               ; preds = %29
  store i32 2, i32* %3, align 4
  br label %33

33:                                               ; preds = %49, %32
  %34 = load i32, i32* %3, align 4
  %35 = load i32, i32* %4, align 4
  %36 = load i32, i32* %2, align 4
  %37 = sub nsw i32 %35, %36
  %38 = sub nsw i32 %37, 1
  %39 = icmp sle i32 %34, %38
  br i1 %39, label %40, label %52

40:                                               ; preds = %33
  %41 = load i32, i32* %4, align 4
  %42 = load i32, i32* %2, align 4
  %43 = sub nsw i32 %41, %42
  %44 = load i32, i32* %3, align 4
  %45 = srem i32 %43, %44
  %46 = icmp eq i32 %45, 0
  br i1 %46, label %47, label %48

47:                                               ; preds = %40
  store i32 1, i32* %6, align 4
  br label %52

48:                                               ; preds = %40
  br label %49

49:                                               ; preds = %48
  %50 = load i32, i32* %3, align 4
  %51 = add nsw i32 %50, 1
  store i32 %51, i32* %3, align 4
  br label %33

52:                                               ; preds = %47, %33
  %53 = load i32, i32* %6, align 4
  %54 = icmp eq i32 %53, 0
  br i1 %54, label %55, label %61

55:                                               ; preds = %52
  %56 = load i32, i32* %2, align 4
  %57 = load i32, i32* %4, align 4
  %58 = load i32, i32* %2, align 4
  %59 = sub nsw i32 %57, %58
  %60 = call i32 (i8*, ...) @printf(i8* getelementptr inbounds ([7 x i8], [7 x i8]* @.str.1, i64 0, i64 0), i32 %56, i32 %59)
  br label %61

61:                                               ; preds = %55, %52
  br label %62

62:                                               ; preds = %61, %29
  br label %63

63:                                               ; preds = %62
  %64 = load i32, i32* %2, align 4
  %65 = add nsw i32 %64, 1
  store i32 %65, i32* %2, align 4
  br label %8

66:                                               ; preds = %8
  ret i32 0
}

declare dso_local i32 @__isoc99_scanf(i8*, ...) #1

declare dso_local i32 @printf(i8*, ...) #1


!llvm.module.flags = !{!0}
!llvm.ident = !{!1}

!0 = !{i32 1, !"wchar_size", i32 4}
!1 = !{!"clang version 10.0.0-4ubuntu1 "}
